; Function Attrs: mustprogress uwtable
define void @_ZN5arrow2io16HadoopFileSystem4MoveERKNSt7__cxx1112basic_stringIcSt11char_traitsIcESaIcEEES9_(ptr noalias sret(%"class.arrow::Status") align 8 %agg.result, ptr nocapture noundef nonnull readonly align 8 dereferenceable(16) %this, ptr noundef nonnull align 8 dereferenceable(32) %src, ptr noundef nonnull align 8 dereferenceable(32) %dst) local_unnamed_addr #0 align 2 {
entry:
  %impl_ = getelementptr inbounds i8, ptr %this, i64 8
  %0 = load ptr, ptr %impl_, align 8
  tail call void @llvm.experimental.noalias.scope.decl(metadata !348)
  %1 = load ptr, ptr %0, align 8, !noalias !348
  %fs_.i = getelementptr inbounds i8, ptr %0, i64 112
  %2 = load ptr, ptr %fs_.i, align 8, !noalias !348
  %call.i = tail call noundef ptr @_ZNKSt7__cxx1112basic_stringIcSt11char_traitsIcESaIcEE5c_strEv(ptr noundef nonnull align 8 dereferenceable(32) %src) #21, !noalias !348
  %3 = load ptr, ptr %fs_.i, align 8, !noalias !348
  %call3.i = tail call noundef ptr @_ZNKSt7__cxx1112basic_stringIcSt11char_traitsIcESaIcEE5c_strEv(ptr noundef nonnull align 8 dereferenceable(32) %dst) #21, !noalias !348
  %call4.i = tail call noundef i32 @_ZN5arrow2io8internal11LibHdfsShim4MoveEP13hdfs_internalPKcS4_S6_(ptr noundef nonnull align 8 dereferenceable(312) %1, ptr noundef %2, ptr noundef %call.i, ptr noundef %3, ptr noundef %call3.i), !noalias !348
  %cmp.i = icmp eq i32 %call4.i, -1
  br i1 %cmp.i, label %if.then.i, label %do.end.i

if.then.i:                                        ; preds = %entry
  %call5.i = tail call ptr @__errno_location() #23
  %4 = load i32, ptr %call5.i, align 4, !noalias !348
  tail call void @_ZN5arrow8internal15StatusFromErrnoIJRA6_KcRA7_S2_RA8_S2_EEENS_6StatusEiNS_10StatusCodeEDpOT_(ptr sret(%"class.arrow::Status") align 8 %agg.result, i32 noundef %4, i8 noundef signext 5, ptr noundef nonnull align 1 dereferenceable(6) @.str.2, ptr noundef nonnull align 1 dereferenceable(7) @.str.28, ptr noundef nonnull align 1 dereferenceable(8) @.str.4)
  br label %_ZN5arrow2io16HadoopFileSystem20HadoopFileSystemImpl4MoveERKNSt7__cxx1112basic_stringIcSt11char_traitsIcESaIcEEESA_.exit

do.end.i:                                         ; preds = %entry
  store ptr null, ptr %agg.result, align 8, !alias.scope !351
  br label %_ZN5arrow2io16HadoopFileSystem20HadoopFileSystemImpl4MoveERKNSt7__cxx1112basic_stringIcSt11char_traitsIcESaIcEEESA_.exit

_ZN5arrow2io16HadoopFileSystem20HadoopFileSystemImpl4MoveERKNSt7__cxx1112basic_stringIcSt11char_traitsIcESaIcEEESA_.exit: ; preds = %if.then.i, %do.end.i
  ret void
}